; Function Attrs: mustprogress nofree norecurse nosync nounwind willreturn memory(readwrite, inaccessiblemem: none) uwtable
define hidden void @_ZN2cv13wechat_qrcode9ImgSource5resetEPhii(ptr noundef nonnull align 8 captures(none) dereferenceable(80) initializes((12, 20), (48, 56), (64, 80)) %0, ptr noundef %1, i32 noundef %2, i32 noundef %3) local_unnamed_addr #7 align 2 {
  %5 = getelementptr inbounds nuw i8, ptr %0, i64 48
  store ptr %1, ptr %5, align 8
  %6 = getelementptr inbounds nuw i8, ptr %0, i64 72
  store i32 0, ptr %6, align 8
  %7 = getelementptr inbounds nuw i8, ptr %0, i64 76
  store i32 0, ptr %7, align 4
  %8 = getelementptr inbounds nuw i8, ptr %0, i64 12
  store i32 %2, ptr %8, align 4
  %9 = getelementptr inbounds nuw i8, ptr %0, i64 16
  store i32 %3, ptr %9, align 8
  %10 = getelementptr inbounds nuw i8, ptr %0, i64 64
  store i32 %2, ptr %10, align 8
  %11 = getelementptr inbounds nuw i8, ptr %0, i64 68
  store i32 %3, ptr %11, align 4
  %12 = mul nsw i32 %3, %2
  %13 = getelementptr inbounds nuw i8, ptr %0, i64 40
  %14 = load ptr, ptr %13, align 8
  %15 = getelementptr inbounds nuw i8, ptr %14, i64 16
  %16 = load ptr, ptr %15, align 8
  %17 = sext i32 %12 to i64
  tail call void @llvm.memcpy.p0.p0.i64(ptr align 1 %16, ptr readonly align 1 %1, i64 %17, i1 false)
  ret void
}